target datalayout = "e-m:e-p270:32:32-p271:32:32-p272:64:64-i64:64-i128:128-f80:128-n8:16:32:64-S128"
target triple = "x86_64-pc-linux-gnu"

%struct.opj_cond_t = type { %union.pthread_cond_t }
%union.pthread_cond_t = type { %struct.__pthread_cond_s }
%struct.__pthread_cond_s = type { %union.__atomic_wide_counter, %union.__atomic_wide_counter, [2 x i32], [2 x i32], i32, i32, [2 x i32] }
%union.__atomic_wide_counter = type { i64 }

; Function Attrs: nounwind uwtable
define hidden ptr @opj_cond_create() #0 {
  %1 = alloca ptr, align 8
  %2 = alloca ptr, align 8
  %3 = alloca i32, align 4
  call void @llvm.lifetime.start.p0(i64 8, ptr %2) #4
  %4 = call ptr @opj_malloc(i64 noundef 48)
  store ptr %4, ptr %2, align 8, !tbaa !8
  %5 = load ptr, ptr %2, align 8, !tbaa !8
  %6 = icmp ne ptr %5, null
  br i1 %6, label %8, label %7

7:                                                ; preds = %0
  store ptr null, ptr %1, align 8
  store i32 1, ptr %3, align 4
  br label %17

8:                                                ; preds = %0
  %9 = load ptr, ptr %2, align 8, !tbaa !8
  %10 = getelementptr inbounds nuw %struct.opj_cond_t, ptr %9, i32 0, i32 0
  %11 = call i32 @pthread_cond_init(ptr noundef %10, ptr noundef null) #4
  %12 = icmp ne i32 %11, 0
  br i1 %12, label %13, label %15

13:                                               ; preds = %8
  %14 = load ptr, ptr %2, align 8, !tbaa !8
  call void @opj_free(ptr noundef %14)
  store ptr null, ptr %1, align 8
  store i32 1, ptr %3, align 4
  br label %17

15:                                               ; preds = %8
  %16 = load ptr, ptr %2, align 8, !tbaa !8
  store ptr %16, ptr %1, align 8
  store i32 1, ptr %3, align 4
  br label %17

17:                                               ; preds = %15, %13, %7
  call void @llvm.lifetime.end.p0(i64 8, ptr %2) #4
  %18 = load ptr, ptr %1, align 8
  ret ptr %18
}